; Function Attrs: nounwind uwtable
define internal fastcc i32 @divide_look_behind_alternatives(ptr noundef %0) unnamed_addr #6 {
  %.sroa.0.i = alloca %struct.BagNode, align 8
  %2 = alloca ptr, align 8
  call void @llvm.lifetime.start.p0(i64 8, ptr nonnull %2) #22
  %3 = getelementptr inbounds nuw i8, ptr %0, i64 24
  %4 = load i32, ptr %3, align 8, !tbaa !155
  %5 = getelementptr inbounds nuw i8, ptr %0, i64 16
  %6 = load ptr, ptr %5, align 8, !tbaa !158
  %7 = getelementptr inbounds nuw i8, ptr %6, i64 16
  %8 = load ptr, ptr %7, align 8, !tbaa !20
  call void @llvm.lifetime.start.p0(i64 72, ptr nonnull %.sroa.0.i)
  call void @llvm.memcpy.p0.p0.i64(ptr noundef nonnull align 8 dereferenceable(72) %.sroa.0.i, ptr noundef nonnull align 8 dereferenceable(72) %0, i64 72, i1 false), !tbaa.struct !235
  tail call void @llvm.memcpy.p0.p0.i64(ptr noundef nonnull align 8 dereferenceable(72) %0, ptr noundef nonnull align 8 dereferenceable(72) %6, i64 72, i1 false), !tbaa.struct !235
  call void @llvm.memcpy.p0.p0.i64(ptr noundef nonnull align 8 dereferenceable(72) %6, ptr noundef nonnull align 8 dereferenceable(72) %.sroa.0.i, i64 72, i1 false), !tbaa.struct !235
  %9 = load i32, ptr %0, align 8, !tbaa !20
  %10 = icmp eq i32 %9, 0
  br i1 %10, label %11, label %24

11:                                               ; preds = %1
  %12 = getelementptr inbounds nuw i8, ptr %0, i64 60
  %13 = load i32, ptr %12, align 4, !tbaa !236
  %14 = icmp eq i32 %13, 0
  br i1 %14, label %15, label %24

15:                                               ; preds = %11
  %16 = load ptr, ptr %3, align 8, !tbaa !117
  %17 = load ptr, ptr %5, align 8, !tbaa !115
  %18 = ptrtoint ptr %16 to i64
  %19 = ptrtoint ptr %17 to i64
  %20 = sub i64 %18, %19
  %21 = getelementptr inbounds nuw i8, ptr %0, i64 36
  store ptr %21, ptr %5, align 8, !tbaa !115
  %sext.i = shl i64 %20, 32
  %22 = ashr exact i64 %sext.i, 32
  %23 = getelementptr inbounds i8, ptr %21, i64 %22
  store ptr %23, ptr %3, align 8, !tbaa !117
  br label %24

24:                                               ; preds = %15, %11, %1
  %25 = load i32, ptr %6, align 8, !tbaa !20
  %26 = icmp eq i32 %25, 0
  br i1 %26, label %27, label %node_swap.exit

27:                                               ; preds = %24
  %28 = getelementptr inbounds nuw i8, ptr %6, i64 60
  %29 = load i32, ptr %28, align 4, !tbaa !236
  %30 = icmp eq i32 %29, 0
  br i1 %30, label %31, label %node_swap.exit

31:                                               ; preds = %27
  %32 = getelementptr inbounds nuw i8, ptr %6, i64 24
  %33 = load ptr, ptr %32, align 8, !tbaa !117
  %34 = load ptr, ptr %7, align 8, !tbaa !115
  %35 = ptrtoint ptr %33 to i64
  %36 = ptrtoint ptr %34 to i64
  %37 = sub i64 %35, %36
  %38 = getelementptr inbounds nuw i8, ptr %6, i64 36
  %sext23.i = shl i64 %37, 32
  %39 = ashr exact i64 %sext23.i, 32
  %40 = getelementptr inbounds i8, ptr %38, i64 %39
  store ptr %40, ptr %32, align 8, !tbaa !117
  br label %node_swap.exit

node_swap.exit:                                   ; preds = %24, %27, %31
  call void @llvm.lifetime.end.p0(i64 72, ptr nonnull %.sroa.0.i)
  store ptr %6, ptr %5, align 8, !tbaa !20
  store ptr %8, ptr %7, align 8, !tbaa !20
  %41 = load ptr, ptr %3, align 8, !tbaa !20
  %.not28 = icmp eq ptr %41, null
  br i1 %.not28, label %._crit_edge, label %.lr.ph

.lr.ph:                                           ; preds = %node_swap.exit, %47
  %42 = phi ptr [ %52, %47 ], [ %41, %node_swap.exit ]
  %43 = call i32 @onig_node_copy(ptr noundef nonnull %2, ptr noundef nonnull %6) #22
  %.not26 = icmp eq i32 %43, 0
  br i1 %.not26, label %44, label %.loopexit

44:                                               ; preds = %.lr.ph
  %45 = load ptr, ptr %2, align 8, !tbaa !45
  %46 = icmp eq ptr %45, null
  br i1 %46, label %.loopexit, label %47

47:                                               ; preds = %44
  %48 = getelementptr inbounds nuw i8, ptr %42, i64 16
  %49 = load ptr, ptr %48, align 8, !tbaa !20
  %50 = getelementptr inbounds nuw i8, ptr %45, i64 16
  store ptr %49, ptr %50, align 8, !tbaa !20
  store ptr %45, ptr %48, align 8, !tbaa !20
  %51 = getelementptr inbounds nuw i8, ptr %42, i64 24
  %52 = load ptr, ptr %51, align 8, !tbaa !20
  %.not = icmp eq ptr %52, null
  br i1 %.not, label %._crit_edge, label %.lr.ph, !llvm.loop !275

._crit_edge:                                      ; preds = %47, %node_swap.exit
  %53 = icmp eq i32 %4, 8
  br i1 %53, label %.preheader, label %.loopexit

.preheader:                                       ; preds = %._crit_edge, %.preheader
  %.1 = phi ptr [ %55, %.preheader ], [ %0, %._crit_edge ]
  store i32 7, ptr %.1, align 8, !tbaa !20
  %54 = getelementptr inbounds nuw i8, ptr %.1, i64 24
  %55 = load ptr, ptr %54, align 8, !tbaa !20
  %.not25 = icmp eq ptr %55, null
  br i1 %.not25, label %.loopexit, label %.preheader, !llvm.loop !276

.loopexit:                                        ; preds = %44, %.lr.ph, %.preheader, %._crit_edge
  %.0 = phi i32 [ 0, %._crit_edge ], [ 0, %.preheader ], [ -5, %44 ], [ %43, %.lr.ph ]
  call void @llvm.lifetime.end.p0(i64 8, ptr nonnull %2) #22
  ret i32 %.0
}